target datalayout = "e-m:e-p270:32:32-p271:32:32-p272:64:64-i64:64-i128:128-f80:128-n8:16:32:64-S128"
target triple = "x86_64-unknown-linux-gnu"

%struct.sockaddr_in6 = type { i16, i16, i32, %struct.in6_addr, i32 }
%struct.in6_addr = type { %union.anon.7 }
%union.anon.7 = type { [4 x i32] }

@.str = private unnamed_addr constant [135 x i8] c"generated/home/dtcxzyw/WorkSpace/Projects/compilers/llvm-opt-benchmark/bench/grpc/grpc/src/core/lib/iomgr/socket_utils_common_posix.cc\00", align 1
@_ZL25g_ipv6_loopback_available = internal global i32 0, align 4
@.str.32 = private unnamed_addr constant [52 x i8] c"Disabling AF_INET6 sockets because socket() failed.\00", align 1
@.str.33 = private unnamed_addr constant [57 x i8] c"Disabling AF_INET6 sockets because ::1 is not available.\00", align 1

; Function Attrs: mustprogress uwtable
define internal void @_ZL15probe_ipv6_oncev() #4 {
entry:
  %fd = alloca i32, align 4
  %addr = alloca %struct.sockaddr_in6, align 4
  %call = call i32 @socket(i32 noundef 10, i32 noundef 1, i32 noundef 0) #3
  store i32 %call, ptr %fd, align 4
  store i32 0, ptr @_ZL25g_ipv6_loopback_available, align 4
  %0 = load i32, ptr %fd, align 4
  %cmp = icmp slt i32 %0, 0
  br i1 %cmp, label %if.then, label %if.else

if.then:                                          ; preds = %entry
  call void (ptr, i32, i32, ptr, ...) @gpr_log(ptr noundef @.str, i32 noundef 443, i32 noundef 1, ptr noundef @.str.32)
  br label %if.end6

if.else:                                          ; preds = %entry
  call void @llvm.memset.p0.i64(ptr align 4 %addr, i8 0, i64 28, i1 false)
  %sin6_family = getelementptr inbounds %struct.sockaddr_in6, ptr %addr, i32 0, i32 0
  store i16 10, ptr %sin6_family, align 4
  %sin6_addr = getelementptr inbounds %struct.sockaddr_in6, ptr %addr, i32 0, i32 3
  %__in6_u = getelementptr inbounds %struct.in6_addr, ptr %sin6_addr, i32 0, i32 0
  %arrayidx = getelementptr inbounds [16 x i8], ptr %__in6_u, i64 0, i64 15
  store i8 1, ptr %arrayidx, align 1
  %1 = load i32, ptr %fd, align 4
  %call1 = call i32 @bind(i32 noundef %1, ptr noundef %addr, i32 noundef 28) #3
  %cmp2 = icmp eq i32 %call1, 0
  br i1 %cmp2, label %if.then3, label %if.else4

if.then3:                                         ; preds = %if.else
  store i32 1, ptr @_ZL25g_ipv6_loopback_available, align 4
  br label %if.end

if.else4:                                         ; preds = %if.else
  call void (ptr, i32, i32, ptr, ...) @gpr_log(ptr noundef @.str, i32 noundef 452, i32 noundef 1, ptr noundef @.str.33)
  br label %if.end

if.end:                                           ; preds = %if.else4, %if.then3
  %2 = load i32, ptr %fd, align 4
  %call5 = call i32 @close(i32 noundef %2)
  br label %if.end6

if.end6:                                          ; preds = %if.end, %if.then
  ret void
}