; Function Attrs: mustprogress uwtable
define internal void @_ZL15probe_ipv6_oncev() #3 {
entry:
  %addr = alloca %struct.sockaddr_in6, align 4
  %call = tail call i32 @socket(i32 noundef 10, i32 noundef 1, i32 noundef 0) #16
  store i1 false, ptr @_ZL25g_ipv6_loopback_available, align 4
  %cmp = icmp slt i32 %call, 0
  br i1 %cmp, label %if.then, label %if.else

if.then:                                          ; preds = %entry
  tail call void (ptr, i32, i32, ptr, ...) @gpr_log(ptr noundef nonnull @.str, i32 noundef 443, i32 noundef 1, ptr noundef nonnull @.str.32)
  br label %if.end6

if.else:                                          ; preds = %entry
  call void @llvm.memset.p0.i64(ptr noundef nonnull align 4 dereferenceable(28) %addr, i8 0, i64 28, i1 false)
  store i16 10, ptr %addr, align 4
  %arrayidx = getelementptr inbounds i8, ptr %addr, i64 23
  store i8 1, ptr %arrayidx, align 1
  %call1 = call i32 @bind(i32 noundef %call, ptr noundef nonnull %addr, i32 noundef 28) #16
  %cmp2 = icmp eq i32 %call1, 0
  br i1 %cmp2, label %if.then3, label %if.else4

if.then3:                                         ; preds = %if.else
  store i1 true, ptr @_ZL25g_ipv6_loopback_available, align 4
  br label %if.end

if.else4:                                         ; preds = %if.else
  call void (ptr, i32, i32, ptr, ...) @gpr_log(ptr noundef nonnull @.str, i32 noundef 452, i32 noundef 1, ptr noundef nonnull @.str.33)
  br label %if.end

if.end:                                           ; preds = %if.else4, %if.then3
  %call5 = call i32 @close(i32 noundef %call)
  br label %if.end6

if.end6:                                          ; preds = %if.end, %if.then
  ret void
}